(dp0
S'METTS MARK'
p1
(dp2
S'to_messages'
p3
I807
sS'deferral_payments'
p4
S'NaN'
p5
sS'expenses'
p6
I94299
sS'poi'
p7
I00
sS'deferred_income'
p8
g5
sS'email_address'
p9
S'mark.metts@enron.com'
p10
sS'long_term_incentive'
p11
g5
sS'restricted_stock_deferred'
p12
g5
sS'shared_receipt_with_poi'
p13
I702
sS'loan_advances'
p14
g5
sS'from_messages'
p15
I29
sS'other'
p16
I1740
sS'director_fees'
p17
g5
sS'bonus'
p18
I600000
sS'total_stock_value'
p19
I585062
sS'from_poi_to_this_person'
p20
I38
sS'from_this_person_to_poi'
p21
I1
sS'restricted_stock'
p22
I585062
sS'salary'
p23
I365788
sS'from_this_person_to_poi_percentage'
p24
F0.034482758620689655
sS'total_payments'
p25
I1061827
sS'exercised_stock_options'
p26
g5
sS'from_poi_to_this_person_percentage'
p27
F0.04708798017348203
ssS'BAXTER JOHN C'
p28
(dp29
g3
g5
sg4
I1295738
sg6
I11200
sg7
I00
sg8
I-1386055
sg9
g5
sg11
I1586055
sg12
g5
sg13
g5
sg14
g5
sg15
g5
sg16
I2660303
sg17
g5
sg18
I1200000
sg19
I10623258
sg20
g5
sg21
g5
sg22
I3942714
sg23
I267102
sg24
I0
sg25
I5634343
sg26
I6680544
sg27
I0
ssS'ELLIOTT STEVEN'
p30
(dp31
g3
g5
sg4
g5
sg6
I78552
sg7
I00
sg8
I-400729
sg9
S'steven.elliott@enron.com'
p32
sg11
g5
sg12
g5
sg13
g5
sg14
g5
sg15
g5
sg16
I12961
sg17
g5
sg18
I350000
sg19
I6678735
sg20
g5
sg21
g5
sg22
I1788391
sg23
I170941
sg24
I0
sg25
I211725
sg26
I4890344
sg27
I0
ssS'CORDES WILLIAM R'
p33
(dp34
g3
I764
sg4
g5
sg6
g5
sg7
I00
sg8
g5
sg9
S'bill.cordes@enron.com'
p35
sg11
g5
sg12
g5
sg13
I58
sg14
g5
sg15
I12
sg16
g5
sg17
g5
sg18
g5
sg19
I1038185
sg20
I10
sg21
I0
sg22
I386335
sg23
g5
sg24
F0.0
sg25
g5
sg26
I651850
sg27
F0.013089005235602094
ssS'HANNON KEVIN P'
p36
(dp37
g3
I1045
sg4
g5
sg6
I34039
sg7
I01
sg8
I-3117011
sg9
S'kevin.hannon@enron.com'
p38
sg11
I1617011
sg12
g5
sg13
I1035
sg14
g5
sg15
I32
sg16
I11350
sg17
g5
sg18
I1500000
sg19
I6391065
sg20
I32
sg21
I21
sg22
I853064
sg23
I243293
sg24
F0.65625
sg25
I288682
sg26
I5538001
sg27
F0.03062200956937799
ssS'MORDAUNT KRISTINA M'
p39
(dp40
g3
g5
sg4
g5
sg6
I35018
sg7
I00
sg8
g5
sg9
S'kristina.mordaunt@enron.com'
p41
sg11
g5
sg12
g5
sg13
g5
sg14
g5
sg15
g5
sg16
I1411
sg17
g5
sg18
I325000
sg19
I208510
sg20
g5
sg21
g5
sg22
I208510
sg23
I267093
sg24
I0
sg25
I628522
sg26
g5
sg27
I0
ssS'MEYER ROCKFORD G'
p42
(dp43
g3
I232
sg4
I1848227
sg6
g5
sg7
I00
sg8
g5
sg9
S'rockford.meyer@enron.com'
p44
sg11
g5
sg12
g5
sg13
I22
sg14
g5
sg15
I28
sg16
g5
sg17
g5
sg18
g5
sg19
I955873
sg20
I0
sg21
I0
sg22
I462384
sg23
g5
sg24
F0.0
sg25
I1848227
sg26
I493489
sg27
F0.0
ssS'MCMAHON JEFFREY'
p45
(dp46
g3
I2355
sg4
g5
sg6
I137108
sg7
I00
sg8
g5
sg9
S'jeffrey.mcmahon@enron.com'
p47
sg11
I694862
sg12
g5
sg13
I2228
sg14
g5
sg15
I48
sg16
I297353
sg17
g5
sg18
I2600000
sg19
I1662855
sg20
I58
sg21
I26
sg22
I558801
sg23
I370448
sg24
F0.5416666666666666
sg25
I4099771
sg26
I1104054
sg27
F0.024628450106157114
ssS'HORTON STANLEY C'
p48
(dp49
g3
I2350
sg4
I3131860
sg6
g5
sg7
I00
sg8
g5
sg9
S'stanley.horton@enron.com'
p50
sg11
g5
sg12
g5
sg13
I1074
sg14
g5
sg15
I1073
sg16
g5
sg17
g5
sg18
g5
sg19
I7256648
sg20
I44
sg21
I15
sg22
I2046079
sg23
g5
sg24
F0.013979496738117428
sg25
I3131860
sg26
I5210569
sg27
F0.01872340425531915
ssS'PIPER GREGORY F'
p51
(dp52
g3
I1238
sg4
I1130036
sg6
I43057
sg7
I00
sg8
I-33333
sg9
S'greg.piper@enron.com'
p53
sg11
g5
sg12
I-409554
sg13
I742
sg14
g5
sg15
I222
sg16
I778
sg17
g5
sg18
I400000
sg19
I880290
sg20
I61
sg21
I48
sg22
I409554
sg23
I197091
sg24
F0.21621621621621623
sg25
I1737629
sg26
I880290
sg27
F0.049273021001615507
ssS'HUMPHREY GENE E'
p54
(dp55
g3
I128
sg4
I2964506
sg6
I4994
sg7
I00
sg8
g5
sg9
S'gene.humphrey@enron.com'
p56
sg11
g5
sg12
g5
sg13
I119
sg14
g5
sg15
I17
sg16
g5
sg17
g5
sg18
g5
sg19
I2282768
sg20
I10
sg21
I17
sg22
g5
sg23
I130724
sg24
F1.0
sg25
I3100224
sg26
I2282768
sg27
F0.078125
ssS'UMANOFF ADAM S'
p57
(dp58
g3
I111
sg4
g5
sg6
I53122
sg7
I00
sg8
g5
sg9
S'adam.umanoff@enron.com'
p59
sg11
g5
sg12
g5
sg13
I41
sg14
g5
sg15
I18
sg16
g5
sg17
g5
sg18
I788750
sg19
g5
sg20
I12
sg21
I0
sg22
g5
sg23
I288589
sg24
F0.0
sg25
I1130461
sg26
g5
sg27
F0.10810810810810811
ssS'BLACHMAN JEREMY M'
p60
(dp61
g3
I2475
sg4
g5
sg6
I84208
sg7
I00
sg8
g5
sg9
S'jeremy.blachman@enron.com'
p62
sg11
I831809
sg12
g5
sg13
I2326
sg14
g5
sg15
I14
sg16
I272
sg17
g5
sg18
I850000
sg19
I954354
sg20
I25
sg21
I2
sg22
I189041
sg23
I248546
sg24
F0.14285714285714285
sg25
I2014835
sg26
I765313
sg27
F0.010101010101010102
ssS'SUNDE MARTIN'
p63
(dp64
g3
I2647
sg4
g5
sg6
g5
sg7
I00
sg8
g5
sg9
S'marty.sunde@enron.com'
p65
sg11
I476451
sg12
g5
sg13
I2565
sg14
g5
sg15
I38
sg16
I111122
sg17
g5
sg18
I700000
sg19
I698920
sg20
I37
sg21
I13
sg22
I698920
sg23
I257486
sg24
F0.34210526315789475
sg25
I1545059
sg26
g5
sg27
F0.013978088401964487
ssS'GIBBS DANA R'
p66
(dp67
g3
I169
sg4
I504610
sg6
g5
sg7
I00
sg8
g5
sg9
S'dana.gibbs@enron.com'
p68
sg11
I461912
sg12
g5
sg13
I23
sg14
g5
sg15
I12
sg16
g5
sg17
g5
sg18
g5
sg19
I2218275
sg20
I0
sg21
I0
sg22
g5
sg23
g5
sg24
F0.0
sg25
I966522
sg26
I2218275
sg27
F0.0
ssS'LOWRY CHARLES P'
p69
(dp70
g3
g5
sg4
g5
sg6
g5
sg7
I00
sg8
g5
sg9
g5
sg11
g5
sg12
I-153686
sg13
g5
sg14
g5
sg15
g5
sg16
g5
sg17
g5
sg18
g5
sg19
I372205
sg20
g5
sg21
g5
sg22
I153686
sg23
g5
sg24
I0
sg25
g5
sg26
I372205
sg27
I0
ssS'COLWELL WESLEY'
p71
(dp72
g3
I1758
sg4
I27610
sg6
I16514
sg7
I01
sg8
I-144062
sg9
S'wes.colwell@enron.com'
p73
sg11
g5
sg12
g5
sg13
I1132
sg14
g5
sg15
I40
sg16
I101740
sg17
g5
sg18
I1200000
sg19
I698242
sg20
I240
sg21
I11
sg22
I698242
sg23
I288542
sg24
F0.275
sg25
I1490344
sg26
g5
sg27
F0.13651877133105803
ssS'MULLER MARK S'
p74
(dp75
g3
I136
sg4
I842924
sg6
g5
sg7
I00
sg8
I-719000
sg9
S's..muller@enron.com'
p76
sg11
I1725545
sg12
g5
sg13
I114
sg14
g5
sg15
I16
sg16
I947
sg17
g5
sg18
I1100000
sg19
I1416848
sg20
I12
sg21
I0
sg22
I360528
sg23
I251654
sg24
F0.0
sg25
I3202070
sg26
I1056320
sg27
F0.08823529411764706
ssS'JACKSON CHARLENE R'
p77
(dp78
g3
I258
sg4
g5
sg6
I10181
sg7
I00
sg8
g5
sg9
S'charlene.jackson@enron.com'
p79
sg11
g5
sg12
g5
sg13
I117
sg14
g5
sg15
I56
sg16
I2435
sg17
g5
sg18
I250000
sg19
I725735
sg20
I25
sg21
I19
sg22
I540672
sg23
I288558
sg24
F0.3392857142857143
sg25
I551174
sg26
I185063
sg27
F0.09689922480620156
ssS'WESTFAHL RICHARD K'
p80
(dp81
g3
g5
sg4
g5
sg6
I51870
sg7
I00
sg8
I-10800
sg9
S'dick.westfahl@enron.com'
p82
sg11
I256191
sg12
g5
sg13
g5
sg14
g5
sg15
g5
sg16
I401130
sg17
g5
sg18
g5
sg19
I384930
sg20
g5
sg21
g5
sg22
I384930
sg23
I63744
sg24
I0
sg25
I762135
sg26
g5
sg27
I0
ssS'WALTERS GARETH W'
p83
(dp84
g3
g5
sg4
I53625
sg6
I33785
sg7
I00
sg8
g5
sg9
g5
sg11
g5
sg12
g5
sg13
g5
sg14
g5
sg15
g5
sg16
g5
sg17
g5
sg18
g5
sg19
I1030329
sg20
g5
sg21
g5
sg22
g5
sg23
g5
sg24
I0
sg25
I87410
sg26
I1030329
sg27
I0
ssS'WALLS JR ROBERT H'
p85
(dp86
g3
I671
sg4
g5
sg6
I50936
sg7
I00
sg8
g5
sg9
S'rob.walls@enron.com'
p87
sg11
I540751
sg12
g5
sg13
I215
sg14
g5
sg15
I146
sg16
I2
sg17
g5
sg18
I850000
sg19
I5898997
sg20
I17
sg21
I0
sg22
I1552453
sg23
I357091
sg24
F0.0
sg25
I1798780
sg26
I4346544
sg27
F0.02533532041728763
ssS'KITCHEN LOUISE'
p88
(dp89
g3
I8305
sg4
g5
sg6
I5774
sg7
I00
sg8
g5
sg9
S'louise.kitchen@enron.com'
p90
sg11
g5
sg12
g5
sg13
I3669
sg14
g5
sg15
I1728
sg16
I93925
sg17
g5
sg18
I3100000
sg19
I547143
sg20
I251
sg21
I194
sg22
I466101
sg23
I271442
sg24
F0.11226851851851852
sg25
I3471141
sg26
I81042
sg27
F0.030222757375075255
ssS'CHAN RONNIE'
p91
(dp92
g3
g5
sg4
g5
sg6
g5
sg7
I00
sg8
I-98784
sg9
g5
sg11
g5
sg12
I-32460
sg13
g5
sg14
g5
sg15
g5
sg16
g5
sg17
I98784
sg18
g5
sg19
g5
sg20
g5
sg21
g5
sg22
I32460
sg23
g5
sg24
I0
sg25
g5
sg26
g5
sg27
I0
ssS'SHANKMAN JEFFREY A'
p93
(dp94
g3
I3221
sg4
g5
sg6
I178979
sg7
I00
sg8
g5
sg9
S'jeffrey.shankman@enron.com'
p95
sg11
I554422
sg12
g5
sg13
I1730
sg14
g5
sg15
I2681
sg16
I1191
sg17
g5
sg18
I2000000
sg19
I2072035
sg20
I94
sg21
I83
sg22
I630137
sg23
I304110
sg24
F0.030958597538232
sg25
I3038702
sg26
I1441898
sg27
F0.029183483390251473
ssS'WODRASKA JOHN'
p96
(dp97
g3
g5
sg4
g5
sg6
g5
sg7
I00
sg8
g5
sg9
S'john.wodraska@enron.com'
p98
sg11
g5
sg12
g5
sg13
g5
sg14
g5
sg15
g5
sg16
I189583
sg17
g5
sg18
g5
sg19
g5
sg20
g5
sg21
g5
sg22
g5
sg23
g5
sg24
I0
sg25
I189583
sg26
g5
sg27
I0
ssS'BERGSIEKER RICHARD P'
p99
(dp100
g3
I383
sg4
g5
sg6
I59175
sg7
I00
sg8
I-485813
sg9
S'rick.bergsieker@enron.com'
p101
sg11
I180250
sg12
g5
sg13
I233
sg14
g5
sg15
I59
sg16
I427316
sg17
g5
sg18
I250000
sg19
I659249
sg20
I4
sg21
I0
sg22
I659249
sg23
I187922
sg24
F0.0
sg25
I618850
sg26
g5
sg27
F0.010443864229765013
ssS'URQUHART JOHN A'
p102
(dp103
g3
g5
sg4
g5
sg6
I228656
sg7
I00
sg8
I-36666
sg9
g5
sg11
g5
sg12
g5
sg13
g5
sg14
g5
sg15
g5
sg16
g5
sg17
I36666
sg18
g5
sg19
g5
sg20
g5
sg21
g5
sg22
g5
sg23
g5
sg24
I0
sg25
I228656
sg26
g5
sg27
I0
ssS'BIBI PHILIPPE A'
p104
(dp105
g3
I1607
sg4
g5
sg6
I38559
sg7
I00
sg8
g5
sg9
S'philippe.bibi@enron.com'
p106
sg11
I369721
sg12
g5
sg13
I1336
sg14
g5
sg15
I40
sg16
I425688
sg17
g5
sg18
I1000000
sg19
I1843816
sg20
I23
sg21
I8
sg22
I378082
sg23
I213625
sg24
F0.2
sg25
I2047593
sg26
I1465734
sg27
F0.01431238332296204
ssS'RIEKER PAULA H'
p107
(dp108
g3
I1328
sg4
I214678
sg6
I33271
sg7
I01
sg8
I-100000
sg9
S'paula.rieker@enron.com'
p109
sg11
g5
sg12
g5
sg13
I1258
sg14
g5
sg15
I82
sg16
I1950
sg17
g5
sg18
I700000
sg19
I1918887
sg20
I35
sg21
I48
sg22
I283649
sg23
I249201
sg24
F0.5853658536585366
sg25
I1099100
sg26
I1635238
sg27
F0.02635542168674699
ssS'WHALEY DAVID A'
p110
(dp111
g3
g5
sg4
g5
sg6
g5
sg7
I00
sg8
g5
sg9
g5
sg11
g5
sg12
g5
sg13
g5
sg14
g5
sg15
g5
sg16
g5
sg17
g5
sg18
g5
sg19
I98718
sg20
g5
sg21
g5
sg22
g5
sg23
g5
sg24
I0
sg25
g5
sg26
I98718
sg27
I0
ssS'BECK SALLY W'
p112
(dp113
g3
I7315
sg4
g5
sg6
I37172
sg7
I00
sg8
g5
sg9
S'sally.beck@enron.com'
p114
sg11
g5
sg12
g5
sg13
I2639
sg14
g5
sg15
I4343
sg16
I566
sg17
g5
sg18
I700000
sg19
I126027
sg20
I144
sg21
I386
sg22
I126027
sg23
I231330
sg24
F0.08887865530739121
sg25
I969068
sg26
g5
sg27
F0.01968557758031442
ssS'HAUG DAVID L'
p115
(dp116
g3
I573
sg4
g5
sg6
I475
sg7
I00
sg8
g5
sg9
S'david.haug@enron.com'
p117
sg11
g5
sg12
g5
sg13
I471
sg14
g5
sg15
I19
sg16
g5
sg17
g5
sg18
g5
sg19
I2217299
sg20
I4
sg21
I7
sg22
I2217299
sg23
g5
sg24
F0.3684210526315789
sg25
I475
sg26
g5
sg27
F0.006980802792321117
ssS'ECHOLS JOHN B'
p118
(dp119
g3
g5
sg4
g5
sg6
I21530
sg7
I00
sg8
g5
sg9
S'john.echols@enron.com'
p120
sg11
I2234774
sg12
g5
sg13
g5
sg14
g5
sg15
g5
sg16
I53775
sg17
g5
sg18
I200000
sg19
I1008941
sg20
g5
sg21
g5
sg22
I407503
sg23
I182245
sg24
I0
sg25
I2692324
sg26
I601438
sg27
I0
ssS'MENDELSOHN JOHN'
p121
(dp122
g3
g5
sg4
g5
sg6
I148
sg7
I00
sg8
I-103750
sg9
g5
sg11
g5
sg12
g5
sg13
g5
sg14
g5
sg15
g5
sg16
g5
sg17
I103750
sg18
g5
sg19
g5
sg20
g5
sg21
g5
sg22
g5
sg23
g5
sg24
I0
sg25
I148
sg26
g5
sg27
I0
ssS'HICKERSON GARY J'
p123
(dp124
g3
I1320
sg4
g5
sg6
I98849
sg7
I00
sg8
g5
sg9
S'gary.hickerson@enron.com'
p125
sg11
I69223
sg12
g5
sg13
I900
sg14
g5
sg15
I27
sg16
I1936
sg17
g5
sg18
I1700000
sg19
I441096
sg20
I40
sg21
I1
sg22
I441096
sg23
I211788
sg24
F0.037037037037037035
sg25
I2081796
sg26
g5
sg27
F0.030303030303030304
ssS'CLINE KENNETH W'
p126
(dp127
g3
g5
sg4
g5
sg6
g5
sg7
I00
sg8
g5
sg9
g5
sg11
g5
sg12
I-472568
sg13
g5
sg14
g5
sg15
g5
sg16
g5
sg17
g5
sg18
g5
sg19
I189518
sg20
g5
sg21
g5
sg22
I662086
sg23
g5
sg24
I0
sg25
g5
sg26
g5
sg27
I0
ssS'LEWIS RICHARD'
p128
(dp129
g3
I952
sg4
g5
sg6
g5
sg7
I00
sg8
g5
sg9
S'richard.lewis@enron.com'
p130
sg11
g5
sg12
g5
sg13
I739
sg14
g5
sg15
I26
sg16
g5
sg17
g5
sg18
g5
sg19
I850477
sg20
I10
sg21
I0
sg22
g5
sg23
g5
sg24
F0.0
sg25
g5
sg26
I850477
sg27
F0.01050420168067227
ssS'HAYES ROBERT E'
p131
(dp132
g3
I504
sg4
I7961
sg6
g5
sg7
I00
sg8
g5
sg9
S'robert.hayes@enron.com'
p133
sg11
g5
sg12
g5
sg13
I50
sg14
g5
sg15
I12
sg16
g5
sg17
g5
sg18
g5
sg19
I151418
sg20
I16
sg21
I0
sg22
I151418
sg23
g5
sg24
F0.0
sg25
I7961
sg26
g5
sg27
F0.031746031746031744
ssS'MCCARTY DANNY J'
p134
(dp135
g3
I1433
sg4
g5
sg6
g5
sg7
I00
sg8
g5
sg9
S'danny.mccarty@enron.com'
p136
sg11
g5
sg12
g5
sg13
I508
sg14
g5
sg15
I215
sg16
g5
sg17
g5
sg18
g5
sg19
I758931
sg20
I25
sg21
I2
sg22
I94556
sg23
g5
sg24
F0.009302325581395349
sg25
g5
sg26
I664375
sg27
F0.017445917655268667
ssS'KOPPER MICHAEL J'
p137
(dp138
g3
g5
sg4
g5
sg6
I118134
sg7
I01
sg8
g5
sg9
S'michael.kopper@enron.com'
p139
sg11
I602671
sg12
g5
sg13
g5
sg14
g5
sg15
g5
sg16
I907502
sg17
g5
sg18
I800000
sg19
I985032
sg20
g5
sg21
g5
sg22
I985032
sg23
I224305
sg24
I0
sg25
I2652612
sg26
g5
sg27
I0
ssS'LEFF DANIEL P'
p140
(dp141
g3
I2822
sg4
g5
sg6
g5
sg7
I00
sg8
g5
sg9
S'dan.leff@enron.com'
p142
sg11
I1387399
sg12
g5
sg13
I2672
sg14
g5
sg15
I63
sg16
I3083
sg17
g5
sg18
I1000000
sg19
I360528
sg20
I67
sg21
I14
sg22
I360528
sg23
I273746
sg24
F0.2222222222222222
sg25
I2664228
sg26
g5
sg27
F0.02374202693125443
ssS'LAVORATO JOHN J'
p143
(dp144
g3
I7259
sg4
g5
sg6
I49537
sg7
I00
sg8
g5
sg9
S'john.lavorato@enron.com'
p145
sg11
I2035380
sg12
g5
sg13
I3962
sg14
g5
sg15
I2585
sg16
I1552
sg17
g5
sg18
I8000000
sg19
I5167144
sg20
I528
sg21
I411
sg22
I1008149
sg23
I339288
sg24
F0.15899419729206962
sg25
I10425757
sg26
I4158995
sg27
F0.07273729163796666
ssS'BERBERIAN DAVID'
p146
(dp147
g3
g5
sg4
g5
sg6
I11892
sg7
I00
sg8
g5
sg9
S'david.berberian@enron.com'
p148
sg11
g5
sg12
g5
sg13
g5
sg14
g5
sg15
g5
sg16
g5
sg17
g5
sg18
g5
sg19
I2493616
sg20
g5
sg21
g5
sg22
I869220
sg23
I216582
sg24
I0
sg25
I228474
sg26
I1624396
sg27
I0
ssS'DETMERING TIMOTHY J'
p149
(dp150
g3
g5
sg4
I875307
sg6
I52255
sg7
I00
sg8
I-775241
sg9
S'timothy.detmering@enron.com'
p151
sg11
I415657
sg12
I-315068
sg13
g5
sg14
g5
sg15
g5
sg16
I1105
sg17
g5
sg18
I425000
sg19
I2027865
sg20
g5
sg21
g5
sg22
I315068
sg23
I210500
sg24
I0
sg25
I1204583
sg26
I2027865
sg27
I0
ssS'WAKEHAM JOHN'
p152
(dp153
g3
g5
sg4
g5
sg6
I103773
sg7
I00
sg8
g5
sg9
g5
sg11
g5
sg12
g5
sg13
g5
sg14
g5
sg15
g5
sg16
g5
sg17
I109298
sg18
g5
sg19
g5
sg20
g5
sg21
g5
sg22
g5
sg23
g5
sg24
I0
sg25
I213071
sg26
g5
sg27
I0
ssS'POWERS WILLIAM'
p154
(dp155
g3
I653
sg4
g5
sg6
g5
sg7
I00
sg8
I-17500
sg9
S'ken.powers@enron.com'
p156
sg11
g5
sg12
g5
sg13
I12
sg14
g5
sg15
I26
sg16
g5
sg17
I17500
sg18
g5
sg19
g5
sg20
I0
sg21
I0
sg22
g5
sg23
g5
sg24
F0.0
sg25
g5
sg26
g5
sg27
F0.0
ssS'GOLD JOSEPH'
p157
(dp158
g3
g5
sg4
g5
sg6
g5
sg7
I00
sg8
g5
sg9
S'joe.gold@enron.com'
p159
sg11
I304805
sg12
g5
sg13
g5
sg14
g5
sg15
g5
sg16
I819288
sg17
g5
sg18
I750000
sg19
I877611
sg20
g5
sg21
g5
sg22
I441096
sg23
I272880
sg24
I0
sg25
I2146973
sg26
I436515
sg27
I0
ssS'DUNCAN JOHN H'
p160
(dp161
g3
g5
sg4
g5
sg6
g5
sg7
I00
sg8
I-25000
sg9
g5
sg11
g5
sg12
g5
sg13
g5
sg14
g5
sg15
g5
sg16
g5
sg17
I102492
sg18
g5
sg19
I371750
sg20
g5
sg21
g5
sg22
g5
sg23
g5
sg24
I0
sg25
I77492
sg26
I371750
sg27
I0
ssS'SHAPIRO RICHARD S'
p162
(dp163
g3
I15149
sg4
g5
sg6
I137767
sg7
I00
sg8
g5
sg9
S'richard.shapiro@enron.com'
p164
sg11
g5
sg12
g5
sg13
I4527
sg14
g5
sg15
I1215
sg16
I705
sg17
g5
sg18
I650000
sg19
I987001
sg20
I74
sg21
I65
sg22
I379164
sg23
I269076
sg24
F0.053497942386831275
sg25
I1057548
sg26
I607837
sg27
F0.0048848108786058485
ssS'SHERRIFF JOHN R'
p165
(dp166
g3
I3187
sg4
g5
sg6
g5
sg7
I00
sg8
g5
sg9
S'john.sherriff@enron.com'
p167
sg11
I554422
sg12
g5
sg13
I2103
sg14
g5
sg15
I92
sg16
I1852186
sg17
g5
sg18
I1500000
sg19
I3128982
sg20
I28
sg21
I23
sg22
I1293424
sg23
I428780
sg24
F0.25
sg25
I4335388
sg26
I1835558
sg27
F0.008785691873235017
ssS'SHELBY REX'
p168
(dp169
g3
I225
sg4
g5
sg6
I22884
sg7
I01
sg8
I-4167
sg9
S'rex.shelby@enron.com'
p170
sg11
g5
sg12
g5
sg13
I91
sg14
g5
sg15
I39
sg16
I1573324
sg17
g5
sg18
I200000
sg19
I2493616
sg20
I13
sg21
I14
sg22
I869220
sg23
I211844
sg24
F0.358974358974359
sg25
I2003885
sg26
I1624396
sg27
F0.057777777777777775
ssS'LEMAISTRE CHARLES'
p171
(dp172
g3
g5
sg4
g5
sg6
g5
sg7
I00
sg8
I-25000
sg9
g5
sg11
g5
sg12
g5
sg13
g5
sg14
g5
sg15
g5
sg16
g5
sg17
I112492
sg18
g5
sg19
I412878
sg20
g5
sg21
g5
sg22
g5
sg23
g5
sg24
I0
sg25
I87492
sg26
I412878
sg27
I0
ssS'DEFFNER JOSEPH M'
p173
(dp174
g3
I714
sg4
g5
sg6
I41626
sg7
I00
sg8
g5
sg9
S'joseph.deffner@enron.com'
p175
sg11
I335349
sg12
g5
sg13
I552
sg14
g5
sg15
I74
sg16
I25553
sg17
g5
sg18
I600000
sg19
I159211
sg20
I115
sg21
I4
sg22
I141833
sg23
I206121
sg24
F0.05405405405405406
sg25
I1208649
sg26
I17378
sg27
F0.16106442577030813
ssS'KISHKILL JOSEPH G'
p176
(dp177
g3
g5
sg4
g5
sg6
I116335
sg7
I00
sg8
I-51042
sg9
S'joe.kishkill@enron.com'
p178
sg11
g5
sg12
g5
sg13
g5
sg14
g5
sg15
g5
sg16
I465357
sg17
g5
sg18
g5
sg19
I1034346
sg20
g5
sg21
g5
sg22
I1034346
sg23
I174246
sg24
I0
sg25
I704896
sg26
g5
sg27
I0
ssS'WHALLEY LAWRENCE G'
p179
(dp180
g3
I6019
sg4
g5
sg6
I57838
sg7
I00
sg8
g5
sg9
S'greg.whalley@enron.com'
p181
sg11
I808346
sg12
g5
sg13
I3920
sg14
g5
sg15
I556
sg16
I301026
sg17
g5
sg18
I3000000
sg19
I6079137
sg20
I186
sg21
I24
sg22
I2796177
sg23
I510364
sg24
F0.04316546762589928
sg25
I4677574
sg26
I3282960
sg27
F0.03090214321315833
ssS'MCCONNELL MICHAEL S'
p182
(dp183
g3
I3329
sg4
g5
sg6
I81364
sg7
I00
sg8
g5
sg9
S'mike.mcconnell@enron.com'
p184
sg11
I554422
sg12
g5
sg13
I2189
sg14
g5
sg15
I2742
sg16
I540
sg17
g5
sg18
I1100000
sg19
I3101279
sg20
I92
sg21
I194
sg22
I1478269
sg23
I365038
sg24
F0.07075127644055434
sg25
I2101364
sg26
I1623010
sg27
F0.02763592670471613
ssS'PIRO JIM'
p185
(dp186
g3
I58
sg4
g5
sg6
g5
sg7
I00
sg8
g5
sg9
S'jim.piro@enron.com'
p187
sg11
g5
sg12
g5
sg13
I3
sg14
g5
sg15
I16
sg16
g5
sg17
g5
sg18
g5
sg19
I47304
sg20
I0
sg21
I1
sg22
I47304
sg23
g5
sg24
F0.0625
sg25
g5
sg26
g5
sg27
F0.0
ssS'DELAINEY DAVID W'
p188
(dp189
g3
I3093
sg4
g5
sg6
I86174
sg7
I01
sg8
g5
sg9
S'david.delainey@enron.com'
p190
sg11
I1294981
sg12
g5
sg13
I2097
sg14
g5
sg15
I3069
sg16
I1661
sg17
g5
sg18
I3000000
sg19
I3614261
sg20
I66
sg21
I609
sg22
I1323148
sg23
I365163
sg24
F0.198435972629521
sg25
I4747979
sg26
I2291113
sg27
F0.02133850630455868
ssS'SULLIVAN-SHAKLOVITZ COLLEEN'
p191
(dp192
g3
g5
sg4
I181993
sg6
g5
sg7
I00
sg8
g5
sg9
g5
sg11
I554422
sg12
g5
sg13
g5
sg14
g5
sg15
g5
sg16
I162
sg17
g5
sg18
I100000
sg19
I1362375
sg20
g5
sg21
g5
sg22
g5
sg23
I162779
sg24
I0
sg25
I999356
sg26
I1362375
sg27
I0
ssS'WROBEL BRUCE'
p193
(dp194
g3
g5
sg4
g5
sg6
g5
sg7
I00
sg8
g5
sg9
g5
sg11
g5
sg12
g5
sg13
g5
sg14
g5
sg15
g5
sg16
g5
sg17
g5
sg18
g5
sg19
I139130
sg20
g5
sg21
g5
sg22
g5
sg23
g5
sg24
I0
sg25
g5
sg26
I139130
sg27
I0
ssS'LINDHOLM TOD A'
p195
(dp196
g3
g5
sg4
I204075
sg6
I57727
sg7
I00
sg8
g5
sg9
S'tod.lindholm@enron.com'
p197
sg11
I175000
sg12
g5
sg13
g5
sg14
g5
sg15
g5
sg16
I2630
sg17
g5
sg18
I200000
sg19
I3064208
sg20
g5
sg21
g5
sg22
I514847
sg23
I236457
sg24
I0
sg25
I875889
sg26
I2549361
sg27
I0
ssS'MEYER JEROME J'
p198
(dp199
g3
g5
sg4
g5
sg6
I2151
sg7
I00
sg8
I-38346
sg9
g5
sg11
g5
sg12
g5
sg13
g5
sg14
g5
sg15
g5
sg16
g5
sg17
I38346
sg18
g5
sg19
g5
sg20
g5
sg21
g5
sg22
g5
sg23
g5
sg24
I0
sg25
I2151
sg26
g5
sg27
I0
ssS'LAY KENNETH L'
p200
(dp201
g3
I4273
sg4
I202911
sg6
I99832
sg7
I01
sg8
I-300000
sg9
S'kenneth.lay@enron.com'
p202
sg11
I3600000
sg12
g5
sg13
I2411
sg14
I81525000
sg15
I36
sg16
I10359729
sg17
g5
sg18
I7000000
sg19
I49110078
sg20
I123
sg21
I16
sg22
I14761694
sg23
I1072321
sg24
F0.4444444444444444
sg25
I103559793
sg26
I34348384
sg27
F0.028785396676807865
ssS'BUTTS ROBERT H'
p203
(dp204
g3
g5
sg4
g5
sg6
I9410
sg7
I00
sg8
I-75000
sg9
S'bob.butts@enron.com'
p205
sg11
I175000
sg12
g5
sg13
g5
sg14
g5
sg15
g5
sg16
I150656
sg17
g5
sg18
I750000
sg19
I417619
sg20
g5
sg21
g5
sg22
I417619
sg23
I261516
sg24
I0
sg25
I1271582
sg26
g5
sg27
I0
ssS'OLSON CINDY K'
p206
(dp207
g3
I1184
sg4
I77716
sg6
I63791
sg7
I00
sg8
g5
sg9
S'cindy.olson@enron.com'
p208
sg11
I100000
sg12
g5
sg13
I856
sg14
g5
sg15
I52
sg16
I972
sg17
g5
sg18
I750000
sg19
I2606763
sg20
I20
sg21
I15
sg22
I969729
sg23
I329078
sg24
F0.28846153846153844
sg25
I1321557
sg26
I1637034
sg27
F0.016891891891891893
ssS'MCDONALD REBECCA'
p209
(dp210
g3
I894
sg4
g5
sg6
g5
sg7
I00
sg8
g5
sg9
S'rebecca.mcdonald@enron.com'
p211
sg11
g5
sg12
g5
sg13
I720
sg14
g5
sg15
I13
sg16
g5
sg17
g5
sg18
g5
sg19
I1691366
sg20
I54
sg21
I1
sg22
I934065
sg23
g5
sg24
F0.07692307692307693
sg25
g5
sg26
I757301
sg27
F0.06040268456375839
ssS'CUMBERLAND MICHAEL S'
p212
(dp213
g3
g5
sg4
g5
sg6
I22344
sg7
I00
sg8
g5
sg9
g5
sg11
I275000
sg12
g5
sg13
g5
sg14
g5
sg15
g5
sg16
I713
sg17
g5
sg18
I325000
sg19
I207940
sg20
g5
sg21
g5
sg22
I207940
sg23
I184899
sg24
I0
sg25
I807956
sg26
g5
sg27
I0
ssS'GAHN ROBERT S'
p214
(dp215
g3
g5
sg4
I73122
sg6
I50080
sg7
I00
sg8
I-1042
sg9
g5
sg11
g5
sg12
g5
sg13
g5
sg14
g5
sg15
g5
sg16
I76547
sg17
g5
sg18
I509870
sg19
I318607
sg20
g5
sg21
g5
sg22
I235370
sg23
I192008
sg24
I0
sg25
I900585
sg26
I83237
sg27
I0
ssS'MCCLELLAN GEORGE'
p216
(dp217
g3
I1744
sg4
g5
sg6
I228763
sg7
I00
sg8
I-125000
sg9
S'george.mcclellan@enron.com'
p218
sg11
g5
sg12
g5
sg13
I1469
sg14
g5
sg15
I49
sg16
I51587
sg17
g5
sg18
I900000
sg19
I947861
sg20
I52
sg21
I0
sg22
I441096
sg23
I263413
sg24
F0.0
sg25
I1318763
sg26
I506765
sg27
F0.02981651376146789
ssS'HERMANN ROBERT J'
p219
(dp220
g3
g5
sg4
g5
sg6
I48357
sg7
I00
sg8
I-280000
sg9
S'robert.hermann@enron.com'
p221
sg11
I150000
sg12
g5
sg13
g5
sg14
g5
sg15
g5
sg16
I416441
sg17
g5
sg18
I700000
sg19
I668132
sg20
g5
sg21
g5
sg22
I480632
sg23
I262663
sg24
I0
sg25
I1297461
sg26
I187500
sg27
I0
ssS'SCRIMSHAW MATTHEW'
p222
(dp223
g3
g5
sg4
g5
sg6
g5
sg7
I00
sg8
g5
sg9
S'matthew.scrimshaw@enron.com'
p224
sg11
g5
sg12
g5
sg13
g5
sg14
g5
sg15
g5
sg16
g5
sg17
g5
sg18
g5
sg19
I759557
sg20
g5
sg21
g5
sg22
g5
sg23
g5
sg24
I0
sg25
g5
sg26
I759557
sg27
I0
ssS'GATHMANN WILLIAM D'
p225
(dp226
g3
g5
sg4
g5
sg6
g5
sg7
I00
sg8
g5
sg9
g5
sg11
g5
sg12
I-72419
sg13
g5
sg14
g5
sg15
g5
sg16
g5
sg17
g5
sg18
g5
sg19
I1945360
sg20
g5
sg21
g5
sg22
I264013
sg23
g5
sg24
I0
sg25
g5
sg26
I1753766
sg27
I0
ssS'HAEDICKE MARK E'
p227
(dp228
g3
I4009
sg4
I2157527
sg6
I76169
sg7
I00
sg8
I-934484
sg9
S'mark.haedicke@enron.com'
p229
sg11
I983346
sg12
I-329825
sg13
I1847
sg14
g5
sg15
I1941
sg16
I52382
sg17
g5
sg18
I1150000
sg19
I803094
sg20
I180
sg21
I61
sg22
I524169
sg23
I374125
sg24
F0.03142709943328181
sg25
I3859065
sg26
I608750
sg27
F0.04489897730107259
ssS'BOWEN JR RAYMOND M'
p230
(dp231
g3
I1858
sg4
g5
sg6
I65907
sg7
I01
sg8
I-833
sg9
S'raymond.bowen@enron.com'
p232
sg11
I974293
sg12
g5
sg13
I1593
sg14
g5
sg15
I27
sg16
I1621
sg17
g5
sg18
I1350000
sg19
I252055
sg20
I140
sg21
I15
sg22
I252055
sg23
I278601
sg24
F0.5555555555555556
sg25
I2669589
sg26
g5
sg27
F0.07534983853606028
ssS'FITZGERALD JAY L'
p233
(dp234
g3
I936
sg4
g5
sg6
I23870
sg7
I00
sg8
g5
sg9
S'jay.fitzgerald@enron.com'
p235
sg11
I556416
sg12
g5
sg13
I723
sg14
g5
sg15
I16
sg16
I285414
sg17
g5
sg18
I350000
sg19
I1621236
sg20
I1
sg21
I8
sg22
I956775
sg23
I199157
sg24
F0.5
sg25
I1414857
sg26
I664461
sg27
F0.0010683760683760685
ssS'MORAN MICHAEL P'
p236
(dp237
g3
I672
sg4
g5
sg6
g5
sg7
I00
sg8
g5
sg9
S'michael.moran@enron.com'
p238
sg11
g5
sg12
g5
sg13
I127
sg14
g5
sg15
I19
sg16
g5
sg17
g5
sg18
g5
sg19
I221141
sg20
I0
sg21
I0
sg22
I161602
sg23
g5
sg24
F0.0
sg25
g5
sg26
I59539
sg27
F0.0
ssS'REDMOND BRIAN L'
p239
(dp240
g3
I1671
sg4
g5
sg6
I14689
sg7
I00
sg8
g5
sg9
S'brian.redmond@enron.com'
p241
sg11
g5
sg12
g5
sg13
I1063
sg14
g5
sg15
I221
sg16
g5
sg17
g5
sg18
g5
sg19
I7890324
sg20
I204
sg21
I49
sg22
I381285
sg23
I96840
sg24
F0.22171945701357465
sg25
I111529
sg26
I7509039
sg27
F0.12208258527827648
ssS'BAZELIDES PHILIP J'
p242
(dp243
g3
g5
sg4
I684694
sg6
g5
sg7
I00
sg8
g5
sg9
g5
sg11
I93750
sg12
g5
sg13
g5
sg14
g5
sg15
g5
sg16
I874
sg17
g5
sg18
g5
sg19
I1599641
sg20
g5
sg21
g5
sg22
g5
sg23
I80818
sg24
I0
sg25
I860136
sg26
I1599641
sg27
I0
ssS'BELDEN TIMOTHY N'
p244
(dp245
g3
I7991
sg4
I2144013
sg6
I17355
sg7
I01
sg8
I-2334434
sg9
S'tim.belden@enron.com'
p246
sg11
g5
sg12
g5
sg13
I5521
sg14
g5
sg15
I484
sg16
I210698
sg17
g5
sg18
I5249999
sg19
I1110705
sg20
I228
sg21
I108
sg22
I157569
sg23
I213999
sg24
F0.2231404958677686
sg25
I5501630
sg26
I953136
sg27
F0.028532098610937303
ssS'DURAN WILLIAM D'
p247
(dp248
g3
I904
sg4
g5
sg6
I25785
sg7
I00
sg8
g5
sg9
S'w.duran@enron.com'
p249
sg11
I1105218
sg12
g5
sg13
I599
sg14
g5
sg15
I12
sg16
I1568
sg17
g5
sg18
I750000
sg19
I1640910
sg20
I106
sg21
I3
sg22
I189041
sg23
I210692
sg24
F0.25
sg25
I2093263
sg26
I1451869
sg27
F0.1172566371681416
ssS'THORN TERENCE H'
p250
(dp251
g3
I266
sg4
I16586
sg6
I46145
sg7
I00
sg8
g5
sg9
S'terence.thorn@enron.com'
p252
sg11
I200000
sg12
g5
sg13
I73
sg14
g5
sg15
I41
sg16
I426629
sg17
g5
sg18
g5
sg19
I4817796
sg20
I0
sg21
I0
sg22
I365320
sg23
I222093
sg24
F0.0
sg25
I911453
sg26
I4452476
sg27
F0.0
ssS'FASTOW ANDREW S'
p253
(dp254
g3
g5
sg4
g5
sg6
I55921
sg7
I01
sg8
I-1386055
sg9
S'andrew.fastow@enron.com'
p255
sg11
I1736055
sg12
g5
sg13
g5
sg14
g5
sg15
g5
sg16
I277464
sg17
g5
sg18
I1300000
sg19
I1794412
sg20
g5
sg21
g5
sg22
I1794412
sg23
I440698
sg24
I0
sg25
I2424083
sg26
g5
sg27
I0
ssS'FOY JOE'
p256
(dp257
g3
I57
sg4
I181755
sg6
g5
sg7
I00
sg8
g5
sg9
S'tracy.foy@enron.com'
p258
sg11
g5
sg12
g5
sg13
I2
sg14
g5
sg15
I13
sg16
g5
sg17
g5
sg18
g5
sg19
I343434
sg20
I0
sg21
I0
sg22
g5
sg23
g5
sg24
F0.0
sg25
I181755
sg26
I343434
sg27
F0.0
ssS'CALGER CHRISTOPHER F'
p259
(dp260
g3
I2598
sg4
g5
sg6
I35818
sg7
I01
sg8
I-262500
sg9
S'christopher.calger@enron.com'
p261
sg11
I375304
sg12
g5
sg13
I2188
sg14
g5
sg15
I144
sg16
I486
sg17
g5
sg18
I1250000
sg19
I126027
sg20
I199
sg21
I25
sg22
I126027
sg23
I240189
sg24
F0.1736111111111111
sg25
I1639297
sg26
g5
sg27
F0.07659738260200154
ssS'RICE KENNETH D'
p262
(dp263
g3
I905
sg4
g5
sg6
I46950
sg7
I01
sg8
I-3504386
sg9
S'ken.rice@enron.com'
p264
sg11
I1617011
sg12
g5
sg13
I864
sg14
g5
sg15
I18
sg16
I174839
sg17
g5
sg18
I1750000
sg19
I22542539
sg20
I42
sg21
I4
sg22
I2748364
sg23
I420636
sg24
F0.2222222222222222
sg25
I505050
sg26
I19794175
sg27
F0.04640883977900553
ssS'KAMINSKI WINCENTY J'
p265
(dp266
g3
I4607
sg4
g5
sg6
I83585
sg7
I00
sg8
g5
sg9
S'vince.kaminski@enron.com'
p267
sg11
I323466
sg12
g5
sg13
I583
sg14
g5
sg15
I14368
sg16
I4669
sg17
g5
sg18
I400000
sg19
I976037
sg20
I41
sg21
I171
sg22
I126027
sg23
I275101
sg24
F0.011901447661469933
sg25
I1086821
sg26
I850010
sg27
F0.008899500759713479
ssS'LOCKHART EUGENE E'
p268
(dp269
g3
g5
sg4
g5
sg6
g5
sg7
I00
sg8
g5
sg9
g5
sg11
g5
sg12
g5
sg13
g5
sg14
g5
sg15
g5
sg16
g5
sg17
g5
sg18
g5
sg19
g5
sg20
g5
sg21
g5
sg22
g5
sg23
g5
sg24
I0
sg25
g5
sg26
g5
sg27
I0
ssS'COX DAVID'
p270
(dp271
g3
I102
sg4
g5
sg6
I27861
sg7
I00
sg8
I-41250
sg9
S'chip.cox@enron.com'
p272
sg11
g5
sg12
g5
sg13
I71
sg14
g5
sg15
I33
sg16
I494
sg17
g5
sg18
I800000
sg19
I495633
sg20
I0
sg21
I4
sg22
I378082
sg23
I314288
sg24
F0.12121212121212122
sg25
I1101393
sg26
I117551
sg27
F0.0
ssS'OVERDYKE JR JERE C'
p273
(dp274
g3
g5
sg4
g5
sg6
I18834
sg7
I00
sg8
g5
sg9
S'jere.overdyke@enron.com'
p275
sg11
I135836
sg12
g5
sg13
g5
sg14
g5
sg15
g5
sg16
I176
sg17
g5
sg18
g5
sg19
I7307594
sg20
g5
sg21
g5
sg22
I2041016
sg23
I94941
sg24
I0
sg25
I249787
sg26
I5266578
sg27
I0
ssS'PEREIRA PAULO V. FERRAZ'
p276
(dp277
g3
g5
sg4
g5
sg6
I27942
sg7
I00
sg8
I-101250
sg9
g5
sg11
g5
sg12
g5
sg13
g5
sg14
g5
sg15
g5
sg16
g5
sg17
I101250
sg18
g5
sg19
g5
sg20
g5
sg21
g5
sg22
g5
sg23
g5
sg24
I0
sg25
I27942
sg26
g5
sg27
I0
ssS'STABLER FRANK'
p278
(dp279
g3
g5
sg4
g5
sg6
I16514
sg7
I00
sg8
g5
sg9
S'frank.stabler@enron.com'
p280
sg11
g5
sg12
g5
sg13
g5
sg14
g5
sg15
g5
sg16
I356071
sg17
g5
sg18
I500000
sg19
I511734
sg20
g5
sg21
g5
sg22
I511734
sg23
I239502
sg24
I0
sg25
I1112087
sg26
g5
sg27
I0
ssS'SKILLING JEFFREY K'
p281
(dp282
g3
I3627
sg4
g5
sg6
I29336
sg7
I01
sg8
g5
sg9
S'jeff.skilling@enron.com'
p283
sg11
I1920000
sg12
g5
sg13
I2042
sg14
g5
sg15
I108
sg16
I22122
sg17
g5
sg18
I5600000
sg19
I26093672
sg20
I88
sg21
I30
sg22
I6843672
sg23
I1111258
sg24
F0.2777777777777778
sg25
I8682716
sg26
I19250000
sg27
F0.0242624758753791
ssS'BLAKE JR. NORMAN P'
p284
(dp285
g3
g5
sg4
g5
sg6
I1279
sg7
I00
sg8
I-113784
sg9
g5
sg11
g5
sg12
g5
sg13
g5
sg14
g5
sg15
g5
sg16
g5
sg17
I113784
sg18
g5
sg19
g5
sg20
g5
sg21
g5
sg22
g5
sg23
g5
sg24
I0
sg25
I1279
sg26
g5
sg27
I0
ssS'SHERRICK JEFFREY B'
p286
(dp287
g3
I613
sg4
g5
sg6
g5
sg7
I00
sg8
g5
sg9
S'jeffrey.sherrick@enron.com'
p288
sg11
g5
sg12
g5
sg13
I583
sg14
g5
sg15
I25
sg16
g5
sg17
g5
sg18
g5
sg19
I1832468
sg20
I39
sg21
I18
sg22
I405999
sg23
g5
sg24
F0.72
sg25
g5
sg26
I1426469
sg27
F0.0636215334420881
ssS'PRENTICE JAMES'
p289
(dp290
g3
g5
sg4
I564348
sg6
g5
sg7
I00
sg8
g5
sg9
S'james.prentice@enron.com'
p291
sg11
g5
sg12
g5
sg13
g5
sg14
g5
sg15
g5
sg16
g5
sg17
g5
sg18
g5
sg19
I1095040
sg20
g5
sg21
g5
sg22
I208809
sg23
g5
sg24
I0
sg25
I564348
sg26
I886231
sg27
I0
ssS'PICKERING MARK R'
p292
(dp293
g3
I898
sg4
g5
sg6
I31653
sg7
I00
sg8
g5
sg9
S'mark.pickering@enron.com'
p294
sg11
g5
sg12
g5
sg13
I728
sg14
I400000
sg15
I67
sg16
g5
sg17
g5
sg18
I300000
sg19
I28798
sg20
I7
sg21
I0
sg22
g5
sg23
I655037
sg24
F0.0
sg25
I1386690
sg26
I28798
sg27
F0.0077951002227171495
ssS'NOLES JAMES L'
p295
(dp296
g3
g5
sg4
I774401
sg6
g5
sg7
I00
sg8
g5
sg9
g5
sg11
g5
sg12
I-94556
sg13
g5
sg14
g5
sg15
g5
sg16
g5
sg17
g5
sg18
g5
sg19
I368705
sg20
g5
sg21
g5
sg22
I463261
sg23
g5
sg24
I0
sg25
I774401
sg26
g5
sg27
I0
ssS'KEAN STEVEN J'
p297
(dp298
g3
I12754
sg4
g5
sg6
I41953
sg7
I00
sg8
g5
sg9
S'steven.kean@enron.com'
p299
sg11
I300000
sg12
g5
sg13
I3639
sg14
g5
sg15
I6759
sg16
I1231
sg17
g5
sg18
I1000000
sg19
I6153642
sg20
I140
sg21
I387
sg22
I4131594
sg23
I404338
sg24
F0.05725699067909454
sg25
I1747522
sg26
I2022048
sg27
F0.010976948408342482
ssS'FOWLER PEGGY'
p300
(dp301
g3
I517
sg4
g5
sg6
g5
sg7
I00
sg8
g5
sg9
S'kulvinder.fowler@enron.com'
p302
sg11
g5
sg12
g5
sg13
I10
sg14
g5
sg15
I36
sg16
g5
sg17
g5
sg18
g5
sg19
I1884748
sg20
I0
sg21
I0
sg22
I560170
sg23
g5
sg24
F0.0
sg25
g5
sg26
I1324578
sg27
F0.0
ssS'WASAFF GEORGE'
p303
(dp304
g3
I400
sg4
I831299
sg6
g5
sg7
I00
sg8
I-583325
sg9
S'george.wasaff@enron.com'
p305
sg11
I200000
sg12
g5
sg13
I337
sg14
g5
sg15
I30
sg16
I1425
sg17
g5
sg18
I325000
sg19
I2056427
sg20
I22
sg21
I7
sg22
I388167
sg23
I259996
sg24
F0.23333333333333334
sg25
I1034395
sg26
I1668260
sg27
F0.055
ssS'WHITE JR THOMAS E'
p306
(dp307
g3
g5
sg4
g5
sg6
I81353
sg7
I00
sg8
g5
sg9
S'thomas.white@enron.com'
p308
sg11
g5
sg12
g5
sg13
g5
sg14
g5
sg15
g5
sg16
I1085463
sg17
g5
sg18
I450000
sg19
I15144123
sg20
g5
sg21
g5
sg22
I13847074
sg23
I317543
sg24
I0
sg25
I1934359
sg26
I1297049
sg27
I0
ssS'CHRISTODOULOU DIOMEDES'
p309
(dp310
g3
g5
sg4
g5
sg6
g5
sg7
I00
sg8
g5
sg9
S'diomedes.christodoulou@enron.com'
p311
sg11
g5
sg12
g5
sg13
g5
sg14
g5
sg15
g5
sg16
g5
sg17
g5
sg18
g5
sg19
I6077885
sg20
g5
sg21
g5
sg22
I950730
sg23
g5
sg24
I0
sg25
g5
sg26
I5127155
sg27
I0
ssS'ALLEN PHILLIP K'
p312
(dp313
g3
I2902
sg4
I2869717
sg6
I13868
sg7
I00
sg8
I-3081055
sg9
S'phillip.allen@enron.com'
p314
sg11
I304805
sg12
I-126027
sg13
I1407
sg14
g5
sg15
I2195
sg16
I152
sg17
g5
sg18
I4175000
sg19
I1729541
sg20
I47
sg21
I65
sg22
I126027
sg23
I201955
sg24
F0.029612756264236904
sg25
I4484442
sg26
I1729541
sg27
F0.016195727084769126
ssS'SHARP VICTORIA T'
p315
(dp316
g3
I3136
sg4
I187469
sg6
I116337
sg7
I00
sg8
g5
sg9
S'vicki.sharp@enron.com'
p317
sg11
I422158
sg12
g5
sg13
I2477
sg14
g5
sg15
I136
sg16
I2401
sg17
g5
sg18
I600000
sg19
I494136
sg20
I24
sg21
I6
sg22
I213063
sg23
I248146
sg24
F0.04411764705882353
sg25
I1576511
sg26
I281073
sg27
F0.007653061224489796
ssS'JAEDICKE ROBERT'
p318
(dp319
g3
g5
sg4
g5
sg6
g5
sg7
I00
sg8
I-25000
sg9
g5
sg11
g5
sg12
I-44093
sg13
g5
sg14
g5
sg15
g5
sg16
g5
sg17
I108750
sg18
g5
sg19
I431750
sg20
g5
sg21
g5
sg22
I44093
sg23
g5
sg24
I0
sg25
I83750
sg26
I431750
sg27
I0
ssS'WINOKUR JR. HERBERT S'
p320
(dp321
g3
g5
sg4
g5
sg6
I1413
sg7
I00
sg8
I-25000
sg9
g5
sg11
g5
sg12
g5
sg13
g5
sg14
g5
sg15
g5
sg16
g5
sg17
I108579
sg18
g5
sg19
g5
sg20
g5
sg21
g5
sg22
g5
sg23
g5
sg24
I0
sg25
I84992
sg26
g5
sg27
I0
ssS'BROWN MICHAEL'
p322
(dp323
g3
I1486
sg4
g5
sg6
I49288
sg7
I00
sg8
g5
sg9
S'michael.brown@enron.com'
p324
sg11
g5
sg12
g5
sg13
I761
sg14
g5
sg15
I41
sg16
g5
sg17
g5
sg18
g5
sg19
g5
sg20
I13
sg21
I1
sg22
g5
sg23
g5
sg24
F0.024390243902439025
sg25
I49288
sg26
g5
sg27
F0.008748317631224764
ssS'BADUM JAMES P'
p325
(dp326
g3
g5
sg4
I178980
sg6
I3486
sg7
I00
sg8
g5
sg9
g5
sg11
g5
sg12
g5
sg13
g5
sg14
g5
sg15
g5
sg16
g5
sg17
g5
sg18
g5
sg19
I257817
sg20
g5
sg21
g5
sg22
g5
sg23
g5
sg24
I0
sg25
I182466
sg26
I257817
sg27
I0
ssS'HUGHES JAMES A'
p327
(dp328
g3
I719
sg4
g5
sg6
g5
sg7
I00
sg8
g5
sg9
S'james.hughes@enron.com'
p329
sg11
g5
sg12
g5
sg13
I589
sg14
g5
sg15
I34
sg16
g5
sg17
g5
sg18
g5
sg19
I1118394
sg20
I35
sg21
I5
sg22
I363428
sg23
g5
sg24
F0.14705882352941177
sg25
g5
sg26
I754966
sg27
F0.048678720445062586
ssS'REYNOLDS LAWRENCE'
p330
(dp331
g3
g5
sg4
I51365
sg6
I8409
sg7
I00
sg8
I-200000
sg9
g5
sg11
I156250
sg12
I-140264
sg13
g5
sg14
g5
sg15
g5
sg16
I202052
sg17
g5
sg18
I100000
sg19
I4221891
sg20
g5
sg21
g5
sg22
I201483
sg23
I76399
sg24
I0
sg25
I394475
sg26
I4160672
sg27
I0
ssS'DIMICHELE RICHARD G'
p332
(dp333
g3
g5
sg4
g5
sg6
I35812
sg7
I00
sg8
g5
sg9
S'richard.dimichele@enron.com'
p334
sg11
I694862
sg12
g5
sg13
g5
sg14
g5
sg15
g5
sg16
I374689
sg17
g5
sg18
I1000000
sg19
I8317782
sg20
g5
sg21
g5
sg22
I126027
sg23
I262788
sg24
I0
sg25
I2368151
sg26
I8191755
sg27
I0
ssS'BHATNAGAR SANJAY'
p335
(dp336
g3
I523
sg4
g5
sg6
g5
sg7
I00
sg8
g5
sg9
S'sanjay.bhatnagar@enron.com'
p337
sg11
g5
sg12
I15456290
sg13
I463
sg14
g5
sg15
I29
sg16
I137864
sg17
I137864
sg18
g5
sS'total_stock_value'
p338
S'NaN'
p339
sg20
I0
sg21
I1
sg22
I-2604490
sg23
g5
sg24
F0.034482758620689655
sg25
I15456290
sg26
I2604490
sg27
F0.0
ssS'CARTER REBECCA C'
p340
(dp341
g3
I312
sg4
g5
sg6
g5
sg7
I00
sg8
I-159792
sg9
S'rebecca.carter@enron.com'
p342
sg11
I75000
sg12
I-307301
sg13
I196
sg14
g5
sg15
I15
sg16
I540
sg17
g5
sg18
I300000
sg19
g5
sg20
I29
sg21
I7
sg22
I307301
sg23
I261809
sg24
F0.4666666666666667
sg25
I477557
sg26
g5
sg27
F0.09294871794871795
ssS'BUCHANAN HAROLD G'
p343
(dp344
g3
I1088
sg4
g5
sg6
I600
sg7
I00
sg8
g5
sg9
S'john.buchanan@enron.com'
p345
sg11
I304805
sg12
g5
sg13
I23
sg14
g5
sg15
I125
sg16
I1215
sg17
g5
sg18
I500000
sg19
I1014505
sg20
I0
sg21
I0
sg22
I189041
sg23
I248017
sg24
F0.0
sg25
I1054637
sg26
I825464
sg27
F0.0
ssS'YEAP SOON'
p346
(dp347
g3
g5
sg4
g5
sg6
I55097
sg7
I00
sg8
g5
sg9
g5
sg11
g5
sg12
g5
sg13
g5
sg14
g5
sg15
g5
sg16
g5
sg17
g5
sg18
g5
sg19
I192758
sg20
g5
sg21
g5
sg22
g5
sg23
g5
sg24
I0
sg25
I55097
sg26
I192758
sg27
I0
ssS'MURRAY JULIA H'
p348
(dp349
g3
I2192
sg4
g5
sg6
I57580
sg7
I00
sg8
g5
sg9
S'julia.murray@enron.com'
p350
sg11
I125000
sg12
g5
sg13
I395
sg14
g5
sg15
I45
sg16
I330
sg17
g5
sg18
I400000
sg19
I597461
sg20
I11
sg21
I2
sg22
I196983
sg23
I229284
sg24
F0.044444444444444446
sg25
I812194
sg26
I400478
sg27
F0.005018248175182482
ssS'GARLAND C KEVIN'
p351
(dp352
g3
I209
sg4
g5
sg6
I48405
sg7
I00
sg8
g5
sg9
S'kevin.garland@enron.com'
p353
sg11
I375304
sg12
g5
sg13
I178
sg14
g5
sg15
I44
sg16
I60814
sg17
g5
sg18
I850000
sg19
I896153
sg20
I10
sg21
I27
sg22
I259907
sg23
I231946
sg24
F0.6136363636363636
sg25
I1566469
sg26
I636246
sg27
F0.04784688995215311
ssS'DODSON KEITH'
p354
(dp355
g3
I176
sg4
g5
sg6
I28164
sg7
I00
sg8
g5
sg9
S'keith.dodson@enron.com'
p356
sg11
g5
sg12
g5
sg13
I114
sg14
g5
sg15
I14
sg16
I774
sg17
g5
sg18
I70000
sg19
g5
sg20
I10
sg21
I3
sg22
g5
sg23
I221003
sg24
F0.21428571428571427
sg25
I319941
sg26
g5
sg27
F0.056818181818181816
ssS'YEAGER F SCOTT'
p357
(dp358
g3
g5
sg4
g5
sg6
I53947
sg7
I01
sg8
g5
sg9
S'scott.yeager@enron.com'
p359
sg11
g5
sg12
g5
sg13
g5
sg14
g5
sg15
g5
sg16
I147950
sg17
g5
sg18
g5
sg19
I11884758
sg20
g5
sg21
g5
sg22
I3576206
sg23
I158403
sg24
I0
sg25
I360300
sg26
I8308552
sg27
I0
ssS'HIRKO JOSEPH'
p360
(dp361
g3
g5
sg4
I10259
sg6
I77978
sg7
I01
sg8
g5
sg9
S'joe.hirko@enron.com'
p362
sg11
g5
sg12
g5
sg13
g5
sg14
g5
sg15
g5
sg16
I2856
sg17
g5
sg18
g5
sg19
I30766064
sg20
g5
sg21
g5
sg22
g5
sg23
g5
sg24
I0
sg25
I91093
sg26
I30766064
sg27
I0
ssS'DIETRICH JANET R'
p363
(dp364
g3
I2572
sg4
g5
sg6
I3475
sg7
I00
sg8
g5
sg9
S'janet.dietrich@enron.com'
p365
sg11
I556416
sg12
g5
sg13
I1902
sg14
g5
sg15
I63
sg16
I473
sg17
g5
sg18
I600000
sg19
I1865087
sg20
I305
sg21
I14
sg22
I315068
sg23
I250100
sg24
F0.2222222222222222
sg25
I1410464
sg26
I1550019
sg27
F0.11858475894245724
ssS'DERRICK JR. JAMES V'
p366
(dp367
g3
I2181
sg4
g5
sg6
I51124
sg7
I00
sg8
I-1284000
sg9
S'james.derrick@enron.com'
p368
sg11
I484000
sg12
I-1787380
sg13
I1401
sg14
g5
sg15
I909
sg16
I7482
sg17
g5
sg18
I800000
sg19
I8831913
sg20
I64
sg21
I20
sg22
I1787380
sg23
I492375
sg24
F0.022002200220022004
sg25
I550981
sg26
I8831913
sg27
F0.029344337459880788
ssS'FREVERT MARK A'
p369
(dp370
g3
I3275
sg4
I6426990
sg6
I86987
sg7
I00
sg8
I-3367011
sg9
S'mark.frevert@enron.com'
p371
sg11
I1617011
sg12
g5
sg13
I2979
sg14
I2000000
sg15
I21
sg16
I7427621
sg17
g5
sg18
I2000000
sg19
I14622185
sg20
I242
sg21
I6
sg22
I4188667
sg23
I1060932
sg24
F0.2857142857142857
sg25
I17252530
sg26
I10433518
sg27
F0.07389312977099237
ssS'PAI LOU L'
p372
(dp373
g3
g5
sg4
g5
sg6
I32047
sg7
I00
sg8
g5
sg9
S'lou.pai@enron.com'
p374
sg11
g5
sg12
g5
sg13
g5
sg14
g5
sg15
g5
sg16
I1829457
sg17
g5
sg18
I1000000
sg19
I23817930
sg20
g5
sg21
g5
sg22
I8453763
sg23
I261879
sg24
I0
sg25
I3123383
sg26
I15364167
sg27
I0
ssS'BAY FRANKLIN R'
p375
(dp376
g3
g5
sg4
I260455
sg6
I129142
sg7
I00
sg8
I-201641
sg9
S'frank.bay@enron.com'
p377
sg11
g5
sg12
I-82782
sg13
g5
sg14
g5
sg15
g5
sg16
I69
sg17
g5
sg18
I400000
sg19
I63014
sg20
g5
sg21
g5
sg22
I145796
sg23
I239671
sg24
I0
sg25
I827696
sg26
g5
sg27
I0
ssS'HAYSLETT RODERICK J'
p378
(dp379
g3
I2649
sg4
g5
sg6
g5
sg7
I00
sg8
g5
sg9
S'rod.hayslett@enron.com'
p380
sg11
g5
sg12
g5
sg13
I571
sg14
g5
sg15
I1061
sg16
g5
sg17
g5
sg18
g5
sg19
I346663
sg20
I35
sg21
I38
sg22
I346663
sg23
g5
sg24
F0.03581526861451461
sg25
g5
sg26
g5
sg27
F0.01321253303133258
ssS'FUGH JOHN L'
p381
(dp382
g3
g5
sg4
I50591
sg6
g5
sg7
I00
sg8
g5
sg9
g5
sg11
g5
sg12
g5
sg13
g5
sg14
g5
sg15
g5
sg16
g5
sg17
g5
sg18
g5
sg19
I176378
sg20
g5
sg21
g5
sg22
g5
sg23
g5
sg24
I0
sg25
I50591
sg26
I176378
sg27
I0
ssS'FALLON JAMES B'
p383
(dp384
g3
I1755
sg4
g5
sg6
I95924
sg7
I00
sg8
g5
sg9
S'jim.fallon@enron.com'
p385
sg11
I374347
sg12
g5
sg13
I1604
sg14
g5
sg15
I75
sg16
I401481
sg17
g5
sg18
I2500000
sg19
I2332399
sg20
I42
sg21
I37
sg22
I1392142
sg23
I304588
sg24
F0.49333333333333335
sg25
I3676340
sg26
I940257
sg27
F0.023931623931623933
ssS'KOENIG MARK E'
p386
(dp387
g3
I2374
sg4
g5
sg6
I127017
sg7
I01
sg8
g5
sg9
S'mark.koenig@enron.com'
p388
sg11
I300000
sg12
g5
sg13
I2271
sg14
g5
sg15
I61
sg16
I150458
sg17
g5
sg18
I700000
sg19
I1920055
sg20
I53
sg21
I15
sg22
I1248318
sg23
I309946
sg24
F0.2459016393442623
sg25
I1587421
sg26
I671737
sg27
F0.02232518955349621
ssS'SAVAGE FRANK'
p389
(dp390
g3
g5
sg4
g5
sg6
g5
sg7
I00
sg8
I-121284
sg9
g5
sg11
g5
sg12
g5
sg13
g5
sg14
g5
sg15
g5
sg16
g5
sg17
I125034
sg18
g5
sg19
g5
sg20
g5
sg21
g5
sg22
g5
sg23
g5
sg24
I0
sg25
I3750
sg26
g5
sg27
I0
ssS'IZZO LAWRENCE L'
p391
(dp392
g3
I496
sg4
g5
sg6
I28093
sg7
I00
sg8
g5
sg9
S'larry.izzo@enron.com'
p393
sg11
I312500
sg12
g5
sg13
I437
sg14
g5
sg15
I19
sg16
I1553729
sg17
g5
sg18
g5
sg19
I5819980
sg20
I28
sg21
I5
sg22
I3654808
sg23
I85274
sg24
F0.2631578947368421
sg25
I1979596
sg26
I2165172
sg27
F0.056451612903225805
ssS'TILNEY ELIZABETH A'
p394
(dp395
g3
I460
sg4
g5
sg6
g5
sg7
I00
sg8
I-575000
sg9
S'elizabeth.tilney@enron.com'
p396
sg11
I275000
sg12
g5
sg13
I379
sg14
g5
sg15
I19
sg16
I152055
sg17
g5
sg18
I300000
sg19
I1168042
sg20
I10
sg21
I11
sg22
I576792
sg23
I247338
sg24
F0.5789473684210527
sg25
I399393
sg26
I591250
sg27
F0.021739130434782608
ssS'MARTIN AMANDA K'
p397
(dp398
g3
I1522
sg4
I85430
sg6
I8211
sg7
I00
sg8
g5
sg9
S'a..martin@enron.com'
p399
sg11
I5145434
sg12
g5
sg13
I477
sg14
g5
sg15
I230
sg16
I2818454
sg17
g5
sg18
g5
sg19
I2070306
sg20
I8
sg21
I0
sg22
g5
sg23
I349487
sg24
F0.0
sg25
I8407016
sg26
I2070306
sg27
F0.005256241787122208
ssS'BUY RICHARD B'
p400
(dp401
g3
I3523
sg4
I649584
sg6
g5
sg7
I00
sg8
I-694862
sg9
S'rick.buy@enron.com'
p402
sg11
I769862
sg12
g5
sg13
I2333
sg14
g5
sg15
I1053
sg16
I400572
sg17
g5
sg18
I900000
sg19
I3444470
sg20
I156
sg21
I71
sg22
I901657
sg23
I330546
sg24
F0.06742640075973409
sg25
I2355702
sg26
I2542813
sg27
F0.04428044280442804
ssS'GRAMM WENDY L'
p403
(dp404
g3
g5
sg4
g5
sg6
g5
sg7
I00
sg8
g5
sg9
g5
sg11
g5
sg12
g5
sg13
g5
sg14
g5
sg15
g5
sg16
g5
sg17
I119292
sg18
g5
sg19
g5
sg20
g5
sg21
g5
sg22
g5
sg23
g5
sg24
I0
sg25
I119292
sg26
g5
sg27
I0
ssS'CAUSEY RICHARD A'
p405
(dp406
g3
I1892
sg4
g5
sg6
I30674
sg7
I01
sg8
I-235000
sg9
S'richard.causey@enron.com'
p407
sg11
I350000
sg12
g5
sg13
I1585
sg14
g5
sg15
I49
sg16
I307895
sg17
g5
sg18
I1000000
sg19
I2502063
sg20
I58
sg21
I12
sg22
I2502063
sg23
I415189
sg24
F0.24489795918367346
sg25
I1868758
sg26
g5
sg27
F0.0306553911205074
ssS'TAYLOR MITCHELL S'
p408
(dp409
g3
I533
sg4
I227449
sg6
g5
sg7
I00
sg8
g5
sg9
S'mitchell.taylor@enron.com'
p410
sg11
g5
sg12
g5
sg13
I300
sg14
g5
sg15
I29
sg16
g5
sg17
g5
sg18
I600000
sg19
I3745048
sg20
I0
sg21
I0
sg22
I563798
sg23
I265214
sg24
F0.0
sg25
I1092663
sg26
I3181250
sg27
F0.0
ssS'DONAHUE JR JEFFREY M'
p411
(dp412
g3
I865
sg4
g5
sg6
I96268
sg7
I00
sg8
I-300000
sg9
S'jeff.donahue@enron.com'
p413
sg11
g5
sg12
g5
sg13
I772
sg14
g5
sg15
I22
sg16
I891
sg17
g5
sg18
I800000
sg19
I1080988
sg20
I188
sg21
I11
sg22
I315068
sg23
I278601
sg24
F0.5
sg25
I875760
sg26
I765920
sg27
F0.21734104046242775
ssS'GLISAN JR BEN F'
p414
(dp415
g3
I873
sg4
g5
sg6
I125978
sg7
I01
sg8
g5
sg9
S'ben.glisan@enron.com'
p416
sg11
I71023
sg12
g5
sg13
I874
sg14
g5
sg15
I16
sg16
I200308
sg17
g5
sg18
I600000
sg19
I778546
sg20
I52
sg21
I6
sg22
I393818
sg23
I274975
sg24
F0.375
sg25
I1272284
sg26
I384728
sg27
F0.05956471935853379
ss.